; Function Attrs: mustprogress uwtable
define hidden void @_ZN2lp10lar_solver39update_column_type_and_bound_with_no_ubEjNS_16lconstraint_kindERK8rationalPN18dependency_managerIN25scoped_dependency_managerIjE6configEE10dependencyE(ptr noundef nonnull align 8 dereferenceable(2128) %0, i32 noundef %1, i32 noundef %2, ptr noundef nonnull align 8 dereferenceable(32) %3, ptr noundef %4) local_unnamed_addr #5 align 2 {
  %6 = getelementptr inbounds nuw i8, ptr %0, i64 1096
  %7 = load ptr, ptr %6, align 8, !tbaa !441
  %8 = load ptr, ptr %7, align 8, !tbaa !398
  %9 = zext i32 %1 to i64
  %10 = getelementptr inbounds nuw i32, ptr %8, i64 %9
  %11 = load i32, ptr %10, align 4, !tbaa !442
  %switch.and.i.i = and i32 %11, -3
  %switch.selectcmp.i.i.not = icmp eq i32 %switch.and.i.i, 0
  br i1 %switch.selectcmp.i.i.not, label %13, label %12

12:                                               ; preds = %5
  tail call void @_ZN2lp10lar_solver26update_bound_with_no_ub_lbEjNS_16lconstraint_kindERK8rationalPN18dependency_managerIN25scoped_dependency_managerIjE6configEE10dependencyE(ptr noundef nonnull align 8 dereferenceable(2128) %0, i32 noundef %1, i32 noundef %2, ptr noundef nonnull align 8 dereferenceable(32) %3, ptr noundef %4)
  br label %14

13:                                               ; preds = %5
  tail call void @_ZN2lp10lar_solver29update_bound_with_no_ub_no_lbEjNS_16lconstraint_kindERK8rationalPN18dependency_managerIN25scoped_dependency_managerIjE6configEE10dependencyE(ptr noundef nonnull align 8 dereferenceable(2128) %0, i32 noundef %1, i32 noundef %2, ptr noundef nonnull align 8 dereferenceable(32) %3, ptr noundef %4)
  br label %14

14:                                               ; preds = %13, %12
  ret void
}